target datalayout = "e-m:e-p270:32:32-p271:32:32-p272:64:64-i64:64-i128:128-f80:128-n8:16:32:64-S128"
target triple = "x86_64-pc-linux-gnu"

%struct.anon = type { i32, [0 x i8] }
%struct.varattrib_1b = type { i8, [0 x i8] }
%struct.varattrib_1b_e = type { i8, i8, [0 x i8] }
%struct.FunctionCallInfoBaseData = type { ptr, ptr, ptr, i32, i8, i16, [0 x %struct.NullableDatum] }
%struct.NullableDatum = type { i64, i8 }

; Function Attrs: inlinehint nounwind uwtable
define internal i64 @PointerGetDatum(ptr noundef %0) #0 {
  %2 = alloca ptr, align 8
  store ptr %0, ptr %2, align 8
  %3 = load ptr, ptr %2, align 8
  %4 = ptrtoint ptr %3 to i64
  ret i64 %4
}

; Function Attrs: inlinehint nounwind uwtable
define internal i32 @DatumGetInt32(i64 noundef %0) #0 {
  %2 = alloca i64, align 8
  store i64 %0, ptr %2, align 8
  %3 = load i64, ptr %2, align 8
  %4 = trunc i64 %3 to i32
  ret i32 %4
}

; Function Attrs: inlinehint nounwind uwtable
define internal ptr @DatumGetPointer(i64 noundef %0) #0 {
  %2 = alloca i64, align 8
  store i64 %0, ptr %2, align 8
  %3 = load i64, ptr %2, align 8
  %4 = inttoptr i64 %3 to ptr
  ret ptr %4
}

; Function Attrs: nounwind uwtable
define dso_local i64 @byteaoverlay_no_len(ptr noundef %0) #1 {
  %2 = alloca ptr, align 8
  %3 = alloca ptr, align 8
  %4 = alloca ptr, align 8
  %5 = alloca i32, align 4
  %6 = alloca i32, align 4
  store ptr %0, ptr %2, align 8
  call void @llvm.lifetime.start.p0(i64 8, ptr %3) #13
  %7 = load ptr, ptr %2, align 8
  %8 = getelementptr inbounds nuw %struct.FunctionCallInfoBaseData, ptr %7, i32 0, i32 6
  %9 = getelementptr inbounds [0 x %struct.NullableDatum], ptr %8, i64 0, i64 0
  %10 = getelementptr inbounds nuw %struct.NullableDatum, ptr %9, i32 0, i32 0
  %11 = load i64, ptr %10, align 8
  %12 = call ptr @DatumGetPointer(i64 noundef %11)
  %13 = call ptr @pg_detoast_datum_packed(ptr noundef %12)
  store ptr %13, ptr %3, align 8
  call void @llvm.lifetime.start.p0(i64 8, ptr %4) #13
  %14 = load ptr, ptr %2, align 8
  %15 = getelementptr inbounds nuw %struct.FunctionCallInfoBaseData, ptr %14, i32 0, i32 6
  %16 = getelementptr inbounds [0 x %struct.NullableDatum], ptr %15, i64 0, i64 1
  %17 = getelementptr inbounds nuw %struct.NullableDatum, ptr %16, i32 0, i32 0
  %18 = load i64, ptr %17, align 8
  %19 = call ptr @DatumGetPointer(i64 noundef %18)
  %20 = call ptr @pg_detoast_datum_packed(ptr noundef %19)
  store ptr %20, ptr %4, align 8
  call void @llvm.lifetime.start.p0(i64 4, ptr %5) #13
  %21 = load ptr, ptr %2, align 8
  %22 = getelementptr inbounds nuw %struct.FunctionCallInfoBaseData, ptr %21, i32 0, i32 6
  %23 = getelementptr inbounds [0 x %struct.NullableDatum], ptr %22, i64 0, i64 2
  %24 = getelementptr inbounds nuw %struct.NullableDatum, ptr %23, i32 0, i32 0
  %25 = load i64, ptr %24, align 8
  %26 = call i32 @DatumGetInt32(i64 noundef %25)
  store i32 %26, ptr %5, align 4
  call void @llvm.lifetime.start.p0(i64 4, ptr %6) #13
  %27 = load ptr, ptr %4, align 8
  %28 = getelementptr inbounds nuw %struct.varattrib_1b, ptr %27, i32 0, i32 0
  %29 = load i8, ptr %28, align 1
  %30 = zext i8 %29 to i32
  %31 = icmp eq i32 %30, 1
  br i1 %31, label %32, label %60

32:                                               ; preds = %1
  %33 = load ptr, ptr %4, align 8
  %34 = getelementptr inbounds nuw %struct.varattrib_1b_e, ptr %33, i32 0, i32 1
  %35 = load i8, ptr %34, align 1
  %36 = zext i8 %35 to i32
  %37 = icmp eq i32 %36, 1
  br i1 %37, label %38, label %39

38:                                               ; preds = %32
  br label %56

39:                                               ; preds = %32
  %40 = load ptr, ptr %4, align 8
  %41 = getelementptr inbounds nuw %struct.varattrib_1b_e, ptr %40, i32 0, i32 1
  %42 = load i8, ptr %41, align 1
  %43 = zext i8 %42 to i32
  %44 = and i32 %43, -2
  %45 = icmp eq i32 %44, 2
  br i1 %45, label %46, label %47

46:                                               ; preds = %39
  br label %54

47:                                               ; preds = %39
  %48 = load ptr, ptr %4, align 8
  %49 = getelementptr inbounds nuw %struct.varattrib_1b_e, ptr %48, i32 0, i32 1
  %50 = load i8, ptr %49, align 1
  %51 = zext i8 %50 to i32
  %52 = icmp eq i32 %51, 18
  %53 = select i1 %52, i64 16, i64 0
  br label %54

54:                                               ; preds = %47, %46
  %55 = phi i64 [ 8, %46 ], [ %53, %47 ]
  br label %56

56:                                               ; preds = %54, %38
  %57 = phi i64 [ 8, %38 ], [ %55, %54 ]
  %58 = add i64 2, %57
  %59 = sub i64 %58, 2
  br label %86

60:                                               ; preds = %1
  %61 = load ptr, ptr %4, align 8
  %62 = getelementptr inbounds nuw %struct.varattrib_1b, ptr %61, i32 0, i32 0
  %63 = load i8, ptr %62, align 1
  %64 = zext i8 %63 to i32
  %65 = and i32 %64, 1
  %66 = icmp eq i32 %65, 1
  br i1 %66, label %67, label %76

67:                                               ; preds = %60
  %68 = load ptr, ptr %4, align 8
  %69 = getelementptr inbounds nuw %struct.varattrib_1b, ptr %68, i32 0, i32 0
  %70 = load i8, ptr %69, align 1
  %71 = zext i8 %70 to i32
  %72 = ashr i32 %71, 1
  %73 = and i32 %72, 127
  %74 = sext i32 %73 to i64
  %75 = sub i64 %74, 1
  br label %84

76:                                               ; preds = %60
  %77 = load ptr, ptr %4, align 8
  %78 = getelementptr inbounds nuw %struct.anon, ptr %77, i32 0, i32 0
  %79 = load i32, ptr %78, align 4
  %80 = lshr i32 %79, 2
  %81 = and i32 %80, 1073741823
  %82 = sub i32 %81, 4
  %83 = zext i32 %82 to i64
  br label %84

84:                                               ; preds = %76, %67
  %85 = phi i64 [ %75, %67 ], [ %83, %76 ]
  br label %86

86:                                               ; preds = %84, %56
  %87 = phi i64 [ %59, %56 ], [ %85, %84 ]
  %88 = trunc i64 %87 to i32
  store i32 %88, ptr %6, align 4
  %89 = load ptr, ptr %3, align 8
  %90 = load ptr, ptr %4, align 8
  %91 = load i32, ptr %5, align 4
  %92 = load i32, ptr %6, align 4
  %93 = call ptr @bytea_overlay(ptr noundef %89, ptr noundef %90, i32 noundef %91, i32 noundef %92)
  %94 = call i64 @PointerGetDatum(ptr noundef %93)
  call void @llvm.lifetime.end.p0(i64 4, ptr %6) #13
  call void @llvm.lifetime.end.p0(i64 4, ptr %5) #13
  call void @llvm.lifetime.end.p0(i64 8, ptr %4) #13
  call void @llvm.lifetime.end.p0(i64 8, ptr %3) #13
  ret i64 %94
}