; Function Attrs: nounwind uwtable
define dso_local noundef i64 @byteaoverlay_no_len(ptr noundef readonly captures(none) %0) local_unnamed_addr #0 {
  %2 = getelementptr inbounds nuw i8, ptr %0, i64 32
  %3 = load i64, ptr %2, align 8
  %4 = inttoptr i64 %3 to ptr
  %5 = tail call ptr @pg_detoast_datum_packed(ptr noundef %4) #19
  %6 = getelementptr inbounds nuw i8, ptr %0, i64 48
  %7 = load i64, ptr %6, align 8
  %8 = inttoptr i64 %7 to ptr
  %9 = tail call ptr @pg_detoast_datum_packed(ptr noundef %8) #19
  %10 = getelementptr inbounds nuw i8, ptr %0, i64 64
  %11 = load i64, ptr %10, align 8
  %12 = load i8, ptr %9, align 1
  %13 = zext i8 %12 to i32
  %14 = icmp eq i8 %12, 1
  br i1 %14, label %15, label %24

15:                                               ; preds = %1
  %16 = getelementptr inbounds nuw i8, ptr %9, i64 1
  %17 = load i8, ptr %16, align 1
  %18 = icmp eq i8 %17, 1
  %19 = and i8 %17, -2
  %20 = icmp eq i8 %19, 2
  %or.cond = or i1 %18, %20
  %21 = icmp eq i8 %17, 18
  %22 = select i1 %21, i32 16, i32 0
  %23 = select i1 %or.cond, i32 8, i32 %22
  br label %33

24:                                               ; preds = %1
  %25 = and i32 %13, 1
  %.not = icmp eq i32 %25, 0
  br i1 %.not, label %29, label %26

26:                                               ; preds = %24
  %27 = lshr i32 %13, 1
  %28 = add nsw i32 %27, -1
  br label %33

29:                                               ; preds = %24
  %30 = load i32, ptr %9, align 4
  %31 = lshr i32 %30, 2
  %32 = add nsw i32 %31, -4
  br label %33

33:                                               ; preds = %26, %29, %15
  %34 = phi i32 [ %23, %15 ], [ %28, %26 ], [ %32, %29 ]
  %35 = trunc i64 %11 to i32
  %36 = tail call fastcc ptr @bytea_overlay(ptr noundef %5, ptr noundef nonnull %9, i32 noundef %35, i32 noundef %34)
  %37 = ptrtoint ptr %36 to i64
  ret i64 %37
}